; Function Attrs: mustprogress nofree norecurse nosync nounwind willreturn memory(readwrite, inaccessiblemem: none) uwtable
define i32 @Gia_SweeperProbeUpdate(ptr noundef readonly captures(none) %0, i32 noundef %1, i32 noundef %2) local_unnamed_addr #9 {
  %4 = getelementptr inbounds nuw i8, ptr %0, i64 768
  %5 = load ptr, ptr %4, align 8, !tbaa !10
  %6 = getelementptr inbounds nuw i8, ptr %5, i64 16
  %7 = load ptr, ptr %6, align 8, !tbaa !35
  %8 = getelementptr i8, ptr %7, i64 8
  %.val6 = load ptr, ptr %8, align 8, !tbaa !34
  %9 = sext i32 %1 to i64
  %10 = getelementptr inbounds i32, ptr %.val6, i64 %9
  %11 = load i32, ptr %10, align 4, !tbaa !44
  store i32 %2, ptr %10, align 4, !tbaa !44
  ret i32 %11
}